; Function Attrs: mustprogress uwtable
define hidden void @_ZN4cvc58internal6theory5arith6linear7Tableau13printBasicRowEjRSo(ptr noundef nonnull align 8 dereferenceable(496) %0, i32 noundef %1, ptr noundef nonnull align 8 dereferenceable(8) %2) local_unnamed_addr #3 align 2 {
  %4 = getelementptr inbounds nuw i8, ptr %0, i64 400
  %5 = zext i32 %1 to i64
  %6 = load ptr, ptr %4, align 8, !tbaa !3
  %7 = getelementptr inbounds nuw i32, ptr %6, i64 %5
  %8 = load i32, ptr %7, align 4, !tbaa !9
  tail call void @_ZNK4cvc58internal6theory5arith6linear6MatrixINS0_8RationalEE8printRowEjRSo(ptr noundef nonnull align 8 dereferenceable(352) %0, i32 noundef %8, ptr noundef nonnull align 8 dereferenceable(8) %2)
  ret void
}